; Function Attrs: mustprogress uwtable
define noundef nonnull align 8 dereferenceable(8) ptr @_ZN10open_spiellsERSoRKNS_9StateTypeE(ptr noundef nonnull returned align 8 dereferenceable(8) %0, ptr noundef nonnull readonly align 4 captures(none) dereferenceable(4) %1) local_unnamed_addr #3 {
  %3 = load i32, ptr %1, align 4
  %4 = icmp ult i32 %3, 4
  br i1 %4, label %switch.lookup, label %7

switch.lookup:                                    ; preds = %2
  %5 = zext nneg i32 %3 to i64
  %switch.gep = getelementptr inbounds nuw [4 x ptr], ptr @switch.table._ZN10open_spiellsERSoRKNS_9StateTypeE, i64 0, i64 %5
  %switch.load = load ptr, ptr %switch.gep, align 8
  %6 = tail call noundef nonnull align 8 dereferenceable(8) ptr @_ZStlsISt11char_traitsIcEERSt13basic_ostreamIcT_ES5_PKc(ptr noundef nonnull align 8 dereferenceable(8) %0, ptr noundef nonnull %switch.load)
  br label %7

7:                                                ; preds = %2, %switch.lookup
  ret ptr %0
}